target datalayout = "e-m:e-p270:32:32-p271:32:32-p272:64:64-i64:64-i128:128-f80:128-n8:16:32:64-S128"
target triple = "x86_64-pc-linux-gnu"

%struct.IPV6_STAT = type { [16 x i8], i32, i32, i32 }

; Function Attrs: nounwind uwtable
define internal i32 @ipv6_from_asc(ptr noundef %0, ptr noundef %1) #0 {
  %3 = alloca i32, align 4
  %4 = alloca ptr, align 8
  %5 = alloca ptr, align 8
  %6 = alloca %struct.IPV6_STAT, align 4
  %7 = alloca i32, align 4
  store ptr %0, ptr %4, align 8, !tbaa !3
  store ptr %1, ptr %5, align 8, !tbaa !3
  call void @llvm.lifetime.start.p0(i64 28, ptr %6) #8
  %8 = getelementptr inbounds nuw %struct.IPV6_STAT, ptr %6, i32 0, i32 1
  store i32 0, ptr %8, align 4, !tbaa !82
  %9 = getelementptr inbounds nuw %struct.IPV6_STAT, ptr %6, i32 0, i32 2
  store i32 -1, ptr %9, align 4, !tbaa !84
  %10 = getelementptr inbounds nuw %struct.IPV6_STAT, ptr %6, i32 0, i32 3
  store i32 0, ptr %10, align 4, !tbaa !85
  %11 = load ptr, ptr %5, align 8, !tbaa !3
  %12 = call i32 @CONF_parse_list(ptr noundef %11, i32 noundef 58, i32 noundef 0, ptr noundef @ipv6_cb, ptr noundef %6)
  %13 = icmp ne i32 %12, 0
  br i1 %13, label %15, label %14

14:                                               ; preds = %2
  store i32 0, ptr %3, align 4
  store i32 1, ptr %7, align 4
  br label %131

15:                                               ; preds = %2
  %16 = getelementptr inbounds nuw %struct.IPV6_STAT, ptr %6, i32 0, i32 2
  %17 = load i32, ptr %16, align 4, !tbaa !84
  %18 = icmp eq i32 %17, -1
  br i1 %18, label %19, label %25

19:                                               ; preds = %15
  %20 = getelementptr inbounds nuw %struct.IPV6_STAT, ptr %6, i32 0, i32 1
  %21 = load i32, ptr %20, align 4, !tbaa !82
  %22 = icmp ne i32 %21, 16
  br i1 %22, label %23, label %24

23:                                               ; preds = %19
  store i32 0, ptr %3, align 4
  store i32 1, ptr %7, align 4
  br label %131

24:                                               ; preds = %19
  br label %76

25:                                               ; preds = %15
  %26 = getelementptr inbounds nuw %struct.IPV6_STAT, ptr %6, i32 0, i32 1
  %27 = load i32, ptr %26, align 4, !tbaa !82
  %28 = icmp eq i32 %27, 16
  br i1 %28, label %29, label %30

29:                                               ; preds = %25
  store i32 0, ptr %3, align 4
  store i32 1, ptr %7, align 4
  br label %131

30:                                               ; preds = %25
  %31 = getelementptr inbounds nuw %struct.IPV6_STAT, ptr %6, i32 0, i32 3
  %32 = load i32, ptr %31, align 4, !tbaa !85
  %33 = icmp sgt i32 %32, 3
  br i1 %33, label %34, label %35

34:                                               ; preds = %30
  store i32 0, ptr %3, align 4
  store i32 1, ptr %7, align 4
  br label %131

35:                                               ; preds = %30
  %36 = getelementptr inbounds nuw %struct.IPV6_STAT, ptr %6, i32 0, i32 3
  %37 = load i32, ptr %36, align 4, !tbaa !85
  %38 = icmp eq i32 %37, 3
  br i1 %38, label %39, label %45

39:                                               ; preds = %35
  %40 = getelementptr inbounds nuw %struct.IPV6_STAT, ptr %6, i32 0, i32 1
  %41 = load i32, ptr %40, align 4, !tbaa !82
  %42 = icmp sgt i32 %41, 0
  br i1 %42, label %43, label %44

43:                                               ; preds = %39
  store i32 0, ptr %3, align 4
  store i32 1, ptr %7, align 4
  br label %131

44:                                               ; preds = %39
  br label %74

45:                                               ; preds = %35
  %46 = getelementptr inbounds nuw %struct.IPV6_STAT, ptr %6, i32 0, i32 3
  %47 = load i32, ptr %46, align 4, !tbaa !85
  %48 = icmp eq i32 %47, 2
  br i1 %48, label %49, label %61

49:                                               ; preds = %45
  %50 = getelementptr inbounds nuw %struct.IPV6_STAT, ptr %6, i32 0, i32 2
  %51 = load i32, ptr %50, align 4, !tbaa !84
  %52 = icmp ne i32 %51, 0
  br i1 %52, label %53, label %60

53:                                               ; preds = %49
  %54 = getelementptr inbounds nuw %struct.IPV6_STAT, ptr %6, i32 0, i32 2
  %55 = load i32, ptr %54, align 4, !tbaa !84
  %56 = getelementptr inbounds nuw %struct.IPV6_STAT, ptr %6, i32 0, i32 1
  %57 = load i32, ptr %56, align 4, !tbaa !82
  %58 = icmp ne i32 %55, %57
  br i1 %58, label %59, label %60

59:                                               ; preds = %53
  store i32 0, ptr %3, align 4
  store i32 1, ptr %7, align 4
  br label %131

60:                                               ; preds = %53, %49
  br label %73

61:                                               ; preds = %45
  %62 = getelementptr inbounds nuw %struct.IPV6_STAT, ptr %6, i32 0, i32 2
  %63 = load i32, ptr %62, align 4, !tbaa !84
  %64 = icmp eq i32 %63, 0
  br i1 %64, label %71, label %65

65:                                               ; preds = %61
  %66 = getelementptr inbounds nuw %struct.IPV6_STAT, ptr %6, i32 0, i32 2
  %67 = load i32, ptr %66, align 4, !tbaa !84
  %68 = getelementptr inbounds nuw %struct.IPV6_STAT, ptr %6, i32 0, i32 1
  %69 = load i32, ptr %68, align 4, !tbaa !82
  %70 = icmp eq i32 %67, %69
  br i1 %70, label %71, label %72

71:                                               ; preds = %65, %61
  store i32 0, ptr %3, align 4
  store i32 1, ptr %7, align 4
  br label %131

72:                                               ; preds = %65
  br label %73

73:                                               ; preds = %72, %60
  br label %74

74:                                               ; preds = %73, %44
  br label %75

75:                                               ; preds = %74
  br label %76

76:                                               ; preds = %75, %24
  %77 = getelementptr inbounds nuw %struct.IPV6_STAT, ptr %6, i32 0, i32 2
  %78 = load i32, ptr %77, align 4, !tbaa !84
  %79 = icmp sge i32 %78, 0
  br i1 %79, label %80, label %126

80:                                               ; preds = %76
  %81 = load ptr, ptr %4, align 8, !tbaa !3
  %82 = getelementptr inbounds nuw %struct.IPV6_STAT, ptr %6, i32 0, i32 0
  %83 = getelementptr inbounds [16 x i8], ptr %82, i64 0, i64 0
  %84 = getelementptr inbounds nuw %struct.IPV6_STAT, ptr %6, i32 0, i32 2
  %85 = load i32, ptr %84, align 4, !tbaa !84
  %86 = sext i32 %85 to i64
  call void @llvm.memcpy.p0.p0.i64(ptr align 1 %81, ptr align 4 %83, i64 %86, i1 false)
  %87 = load ptr, ptr %4, align 8, !tbaa !3
  %88 = getelementptr inbounds nuw %struct.IPV6_STAT, ptr %6, i32 0, i32 2
  %89 = load i32, ptr %88, align 4, !tbaa !84
  %90 = sext i32 %89 to i64
  %91 = getelementptr inbounds i8, ptr %87, i64 %90
  %92 = getelementptr inbounds nuw %struct.IPV6_STAT, ptr %6, i32 0, i32 1
  %93 = load i32, ptr %92, align 4, !tbaa !82
  %94 = sub nsw i32 16, %93
  %95 = sext i32 %94 to i64
  call void @llvm.memset.p0.i64(ptr align 1 %91, i8 0, i64 %95, i1 false)
  %96 = getelementptr inbounds nuw %struct.IPV6_STAT, ptr %6, i32 0, i32 1
  %97 = load i32, ptr %96, align 4, !tbaa !82
  %98 = getelementptr inbounds nuw %struct.IPV6_STAT, ptr %6, i32 0, i32 2
  %99 = load i32, ptr %98, align 4, !tbaa !84
  %100 = icmp ne i32 %97, %99
  br i1 %100, label %101, label %125

101:                                              ; preds = %80
  %102 = load ptr, ptr %4, align 8, !tbaa !3
  %103 = getelementptr inbounds nuw %struct.IPV6_STAT, ptr %6, i32 0, i32 2
  %104 = load i32, ptr %103, align 4, !tbaa !84
  %105 = sext i32 %104 to i64
  %106 = getelementptr inbounds i8, ptr %102, i64 %105
  %107 = getelementptr inbounds i8, ptr %106, i64 16
  %108 = getelementptr inbounds nuw %struct.IPV6_STAT, ptr %6, i32 0, i32 1
  %109 = load i32, ptr %108, align 4, !tbaa !82
  %110 = sext i32 %109 to i64
  %111 = sub i64 0, %110
  %112 = getelementptr inbounds i8, ptr %107, i64 %111
  %113 = getelementptr inbounds nuw %struct.IPV6_STAT, ptr %6, i32 0, i32 0
  %114 = getelementptr inbounds [16 x i8], ptr %113, i64 0, i64 0
  %115 = getelementptr inbounds nuw %struct.IPV6_STAT, ptr %6, i32 0, i32 2
  %116 = load i32, ptr %115, align 4, !tbaa !84
  %117 = sext i32 %116 to i64
  %118 = getelementptr inbounds i8, ptr %114, i64 %117
  %119 = getelementptr inbounds nuw %struct.IPV6_STAT, ptr %6, i32 0, i32 1
  %120 = load i32, ptr %119, align 4, !tbaa !82
  %121 = getelementptr inbounds nuw %struct.IPV6_STAT, ptr %6, i32 0, i32 2
  %122 = load i32, ptr %121, align 4, !tbaa !84
  %123 = sub nsw i32 %120, %122
  %124 = sext i32 %123 to i64
  call void @llvm.memcpy.p0.p0.i64(ptr align 1 %112, ptr align 1 %118, i64 %124, i1 false)
  br label %125

125:                                              ; preds = %101, %80
  br label %130

126:                                              ; preds = %76
  %127 = load ptr, ptr %4, align 8, !tbaa !3
  %128 = getelementptr inbounds nuw %struct.IPV6_STAT, ptr %6, i32 0, i32 0
  %129 = getelementptr inbounds [16 x i8], ptr %128, i64 0, i64 0
  call void @llvm.memcpy.p0.p0.i64(ptr align 1 %127, ptr align 4 %129, i64 16, i1 false)
  br label %130

130:                                              ; preds = %126, %125
  store i32 1, ptr %3, align 4
  store i32 1, ptr %7, align 4
  br label %131

131:                                              ; preds = %130, %71, %59, %43, %34, %29, %23, %14
  call void @llvm.lifetime.end.p0(i64 28, ptr %6) #8
  %132 = load i32, ptr %3, align 4
  ret i32 %132
}

; Function Attrs: nounwind uwtable
define i32 @ossl_a2i_ipadd(ptr noundef %0, ptr noundef %1) #0 {
  %3 = alloca i32, align 4
  %4 = alloca ptr, align 8
  %5 = alloca ptr, align 8
  store ptr %0, ptr %4, align 8, !tbaa !3
  store ptr %1, ptr %5, align 8, !tbaa !3
  %6 = load ptr, ptr %5, align 8, !tbaa !3
  %7 = call ptr @strchr(ptr noundef %6, i32 noundef 58) #7
  %8 = icmp ne ptr %7, null
  br i1 %8, label %9, label %16

9:                                                ; preds = %2
  %10 = load ptr, ptr %4, align 8, !tbaa !3
  %11 = load ptr, ptr %5, align 8, !tbaa !3
  %12 = call i32 @ipv6_from_asc(ptr noundef %10, ptr noundef %11)
  %13 = icmp ne i32 %12, 0
  br i1 %13, label %15, label %14

14:                                               ; preds = %9
  store i32 0, ptr %3, align 4
  br label %23

15:                                               ; preds = %9
  store i32 16, ptr %3, align 4
  br label %23

16:                                               ; preds = %2
  %17 = load ptr, ptr %4, align 8, !tbaa !3
  %18 = load ptr, ptr %5, align 8, !tbaa !3
  %19 = call i32 @ipv4_from_asc(ptr noundef %17, ptr noundef %18)
  %20 = icmp ne i32 %19, 0
  br i1 %20, label %22, label %21

21:                                               ; preds = %16
  store i32 0, ptr %3, align 4
  br label %23

22:                                               ; preds = %16
  store i32 4, ptr %3, align 4
  br label %23

23:                                               ; preds = %22, %21, %15, %14
  %24 = load i32, ptr %3, align 4
  ret i32 %24
}