; Function Attrs: nounwind uwtable
define range(i32 0, 17) i32 @ossl_a2i_ipadd(ptr noundef writeonly captures(none) %0, ptr noundef %1) local_unnamed_addr #0 {
  %3 = alloca %struct.IPV6_STAT, align 4
  %4 = tail call ptr @strchr(ptr noundef nonnull dereferenceable(1) %1, i32 noundef 58) #11
  %.not = icmp eq ptr %4, null
  br i1 %.not, label %42, label %5

5:                                                ; preds = %2
  call void @llvm.lifetime.start.p0(i64 28, ptr nonnull %3) #12
  %6 = getelementptr inbounds nuw i8, ptr %3, i64 16
  store i32 0, ptr %6, align 4, !tbaa !51
  %7 = getelementptr inbounds nuw i8, ptr %3, i64 20
  store i32 -1, ptr %7, align 4, !tbaa !53
  %8 = getelementptr inbounds nuw i8, ptr %3, i64 24
  store i32 0, ptr %8, align 4, !tbaa !54
  %9 = call i32 @CONF_parse_list(ptr noundef nonnull %1, i32 noundef 58, i32 noundef 0, ptr noundef nonnull @ipv6_cb, ptr noundef nonnull %3) #12
  %.not.i = icmp eq i32 %9, 0
  br i1 %.not.i, label %41, label %10

10:                                               ; preds = %5
  %11 = load i32, ptr %7, align 4, !tbaa !53
  %12 = icmp eq i32 %11, -1
  %13 = load i32, ptr %6, align 4, !tbaa !51
  %.not13.i = icmp eq i32 %13, 16
  br i1 %12, label %14, label %15

14:                                               ; preds = %10
  br i1 %.not13.i, label %.thread.i, label %41

15:                                               ; preds = %10
  br i1 %.not13.i, label %41, label %16

16:                                               ; preds = %15
  %17 = load i32, ptr %8, align 4, !tbaa !54
  %18 = icmp sgt i32 %17, 3
  br i1 %18, label %41, label %19

19:                                               ; preds = %16
  switch i32 %17, label %23 [
    i32 3, label %20
    i32 2, label %22
  ]

20:                                               ; preds = %19
  %21 = icmp sgt i32 %13, 0
  br i1 %21, label %41, label %26

22:                                               ; preds = %19
  %.not11.i = icmp eq i32 %11, 0
  %.not12.i = icmp eq i32 %11, %13
  %or.cond.i = or i1 %.not11.i, %.not12.i
  br i1 %or.cond.i, label %26, label %41

23:                                               ; preds = %19
  %24 = icmp eq i32 %11, 0
  %25 = icmp eq i32 %11, %13
  %or.cond15.i = or i1 %24, %25
  br i1 %or.cond15.i, label %41, label %26

26:                                               ; preds = %23, %22, %20
  %27 = icmp sgt i32 %11, -1
  br i1 %27, label %28, label %.thread.i

28:                                               ; preds = %26
  %29 = zext nneg i32 %11 to i64
  call void @llvm.memcpy.p0.p0.i64(ptr align 1 %0, ptr nonnull align 4 %3, i64 %29, i1 false)
  %30 = getelementptr inbounds nuw i8, ptr %0, i64 %29
  %31 = sub nsw i32 16, %13
  %32 = sext i32 %31 to i64
  call void @llvm.memset.p0.i64(ptr align 1 %30, i8 0, i64 %32, i1 false)
  %.not14.i = icmp eq i32 %13, %11
  br i1 %.not14.i, label %ipv6_from_asc.exit, label %33

33:                                               ; preds = %28
  %34 = getelementptr inbounds nuw i8, ptr %30, i64 16
  %35 = sext i32 %13 to i64
  %36 = sub nsw i64 0, %35
  %37 = getelementptr inbounds i8, ptr %34, i64 %36
  %38 = getelementptr inbounds nuw i8, ptr %3, i64 %29
  %39 = sub nsw i32 %13, %11
  %40 = sext i32 %39 to i64
  call void @llvm.memcpy.p0.p0.i64(ptr nonnull align 1 %37, ptr nonnull align 1 %38, i64 %40, i1 false)
  br label %ipv6_from_asc.exit

.thread.i:                                        ; preds = %26, %14
  call void @llvm.memcpy.p0.p0.i64(ptr noundef nonnull align 1 dereferenceable(16) %0, ptr noundef nonnull align 4 dereferenceable(16) %3, i64 16, i1 false)
  br label %ipv6_from_asc.exit

ipv6_from_asc.exit:                               ; preds = %28, %33, %.thread.i
  call void @llvm.lifetime.end.p0(i64 28, ptr nonnull %3) #12
  br label %44

41:                                               ; preds = %5, %14, %15, %16, %20, %22, %23
  call void @llvm.lifetime.end.p0(i64 28, ptr nonnull %3) #12
  br label %44

42:                                               ; preds = %2
  %43 = tail call fastcc i32 @ipv4_from_asc(ptr noundef %0, ptr noundef nonnull %1)
  %.not5 = icmp eq i32 %43, 0
  %.7 = select i1 %.not5, i32 0, i32 4
  br label %44

44:                                               ; preds = %41, %ipv6_from_asc.exit, %42
  %.0 = phi i32 [ %.7, %42 ], [ 0, %41 ], [ 16, %ipv6_from_asc.exit ]
  ret i32 %.0
}